Certificate:
    Data:
        Version: 3 (0x2)
        Serial Number: 4 (0x4)
    Signature Algorithm: sha1WithRSAEncryption
        Issuer: C=NO, ST=Oslo, L=Oslo, O=TrustMe, OU=Trust Department, CN=SIGNING CA 1
        Validity
            Not Before: Sep 19 23:18:02 2014 GMT
            Not After : Sep 19 23:18:02 2015 GMT
        Subject: C=NO, ST=Oslo, L=Oslo, O=TrustMe, OU=Trust Department, CN=kahoot.it/emailAddress=kahoot@kahoot.it
        Subject Public Key Info:
            Public Key Algorithm: rsaEncryption
                Public-Key: (2048 bit)
                Modulus:
                    00:d7:3c:71:59:c5:67:a1:63:94:84:bd:b5:f6:e8:
                    68:bf:ef:23:14:d0:38:06:ea:c2:f3:6b:b1:0f:d3:
                    6b:0a:46:25:a1:89:24:75:23:93:65:a1:e4:66:e1:
                    df:a3:27:8b:b2:b2:24:63:69:a2:25:a1:3e:41:ac:
                    11:1e:74:dd:1a:0c:9b:d2:43:ac:53:42:70:5a:ec:
                    e3:c5:f4:6a:f1:de:b7:2e:ef:13:f6:3c:86:29:b9:
                    9c:91:d0:e9:9a:72:38:cd:bf:5a:f5:37:9a:a2:31:
                    d6:ad:33:30:5b:22:eb:10:73:8f:bf:30:99:8c:4b:
                    33:0a:43:b6:18:82:ed:fd:d8:44:1c:e3:f1:01:1b:
                    a3:2c:c3:93:93:61:1e:ee:a9:9a:bb:da:0d:59:2a:
                    d5:42:92:cc:65:d2:66:91:d8:7e:e6:34:22:30:57:
                    b9:d7:dd:70:92:c3:45:8e:f3:e4:c1:be:4a:a8:77:
                    ee:69:96:cb:07:25:ad:36:38:c7:a8:0d:d2:10:23:
                    0e:ed:ea:6b:43:c7:75:8b:a7:93:26:45:0d:dd:a6:
                    ff:e0:95:61:c1:67:2b:53:33:90:10:ae:37:c7:40:
                    df:68:b8:6d:15:10:7e:1f:83:b6:7a:d8:f0:fa:b7:
                    fa:ad:14:cb:bc:39:f7:f7:5f:8f:07:0c:b2:01:95:
                    31:43
                Exponent: 65537 (0x10001)
        X509v3 extensions:
            X509v3 Basic Constraints: 
                CA:FALSE
            Netscape Comment: 
                OpenSSL Generated Certificate
            X509v3 Subject Key Identifier: 
                A6:CF:D8:BE:6C:23:BD:7B:A4:B1:14:FA:35:F9:08:C4:5F:BB:06:0E
            X509v3 Authority Key Identifier: 
                keyid:7F:D3:9D:11:27:0E:EC:0D:70:A9:33:B7:41:D9:56:02:84:54:41:A0
                DirName:/C=NO/ST=Oslo/L=Oslo/O=TrustMe/OU=Trust Department/CN=ROOT CA
                serial:01

            X509v3 Key Usage: 
                Digital Signature, Non Repudiation, Key Encipherment
            X509v3 Subject Alternative Name: 
                DNS:kahoot.it, DNS:*.kahoot.it
    Signature Algorithm: sha1WithRSAEncryption
         64:ec:aa:b9:c3:3c:d8:de:43:9b:af:49:e5:ba:8e:cf:2b:7b:
         e8:ac:f7:f8:cf:9a:01:1b:a2:b0:51:2c:aa:ae:4b:a3:3b:5a:
         c2:0c:4b:21:b3:ad:07:26:36:50:7a:6f:04:55:5f:63:70:38:
         1b:43:26:1b:90:44:9f:fe:24:f5:5c:2c:53:ca:18:cf:57:5e:
         45:5a:12:20:50:c8:a6:26:b1:92:1b:ce:8d:6b:43:84:b0:1b:
         fa:d7:ef:41:96:04:9f:67:66:78:e8:38:92:3e:d0:aa:65:89:
         66:6a:a4:9b:81:93:d0:f2:1f:b6:cc:8d:42:95:5d:a2:4b:02:
         43:c9:32:89:27:6d:60:90:ab:0a:c4:2e:a5:c8:da:19:46:84:
         3d:fa:75:d9:9e:db:84:fe:27:b8:ca:da:6e:b9:c9:c4:da:74:
         81:5c:02:a7:ed:02:78:67:30:76:58:cb:9d:96:7a:63:0b:4f:
         0e:b2:8c:21:85:55:3f:79:b2:9f:24:04:f3:57:8a:30:c8:0d:
         39:98:70:c3:0a:21:4d:21:6b:d2:33:52:ab:55:98:b6:da:c4:
         27:9f:e4:c5:61:c4:9f:43:f5:55:b5:0c:da:35:ca:d1:74:18:
         30:13:e8:18:3f:aa:67:3b:11:03:d8:1f:9e:b1:3b:62:1c:da:
         e8:22:09:a3:a8:20:c4:e3:9f:ff:33:36:d0:f0:ee:3d:ba:8a:
         94:22:68:6f:f0:25:4a:cc:2f:ad:4a:3b:34:11:ed:5b:a2:15:
         e4:c4:63:1f:72:7f:ef:de:46:55:2d:d6:13:9d:7a:94:29:d2:
         65:e7:e6:8e:b2:b4:b6:f1:55:44:02:21:5a:e5:3f:5c:88:ed:
         87:fa:1e:20:f7:59:16:80:2f:88:0a:08:92:cb:98:82:a2:2a:
         c2:17:c8:74:ab:94:87:aa:b9:4d:de:93:a2:89:71:4d:65:8b:
         3d:19:b1:60:e2:e9:5a:5a:cb:e1:30:b5:e4:b2:8b:71:b1:2b:
         b1:27:16:4d:d4:6a:8f:b5:75:40:a9:c4:d8:7a:b0:27:ac:a6:
         aa:3b:06:cb:90:a5:0a:ea:93:29:7f:40:56:e1:33:f8:12:c8:
         40:36:d7:d8:57:fe:83:7b:70:41:78:69:1b:7a:40:1a:97:32:
         94:23:b1:dd:a8:47:e9:c6:38:fc:17:5a:82:f9:90:96:3f:ec:
         c2:c4:85:ec:70:3d:af:f5:90:7d:5d:8d:98:f2:bb:4a:32:db:
         af:73:60:58:66:c4:df:36:37:20:bf:dc:7e:ad:4d:07:3c:bb:
         66:13:f2:8c:78:5b:5e:30:f2:dc:31:64:1f:0b:60:6a:f9:ea:
         f7:ba:0a:ac:cb:e0:76:58:f0:8b:f9:ac:3a:09:38:fb:c3:8d:
         2f:ec:84:65:42:61:9e:d4:46:84:08:b3:f2:35:0d:26:60:55:
         77:0c:6b:b4:83:f1:36:89:fa:15:89:fd:df:c0:ae:98:59:3b:
         86:41:99:a5:71:2d:c7:02:25:cc:2e:45:71:62:b9:18:25:26:
         07:88:06:ae:1a:17:02:f5:0a:f8:15:71:8d:62:fe:22:84:b3:
         21:ba:fb:47:66:5b:bd:b4:0a:42:1d:1a:9f:11:5c:09:c3:6a:
         fd:ce:37:86:09:82:d7:2e:83:d1:b4:02:15:7e:03:bf:f1:78:
         fc:90:58:3b:09:b3:47:16:f0:5c:8c:09:df:71:01:60:0b:a1:
         84:f1:30:24:ad:ed:f1:24:cc:65:07:fb:72:b9:7d:d6:41:99:
         c7:17:33:6b:bd:4a:49:45:55:69:b9:80:8e:0c:18:05:55:cb:
         d0:20:94:e2:1e:83:cd:9f:3c:e3:53:3f:b8:d6:13:8d:92:4b:
         91:0f:be:e3:53:18:e3:fd:e9:f2:13:ab:35:71:6a:79:73:5c:
         94:a0:27:a3:18:08:b2:52:39:03:1e:dd:27:6e:9f:04:95:97:
         ba:a4:25:ac:10:1d:4c:1c:1b:e5:0b:d2:d1:05:90:33:dc:c5:
         3e:88:cc:9d:b3:21:bc:c8:6d:1d:8e:28:a4:f9:d9:c2:43:77:
         6b:35:c4:f3:b4:bb:d5:07:d0:76:36:01:ea:a4:37:2e:0b:14:
         6d:0a:3d:ea:08:1d:cf:d3:25:30:a0:34:f5:e1:5f:b5:78:3c:
         df:c2:e6:68:9d:c5:91:0f:9f:41:d7:7a:cd:8a:f6:e0:bc:fa:
         0e:fb:84:65:d5:ee:85:38:8d:53:05:cf:42:51:6a:7c:a6:0b:
         ac:30:71:81:12:71:9c:21:0a:96:84:35:cb:b1:b7:a0:be:f4:
         76:db:30:d3:f9:c0:61:f3:2d:ab:1b:b7:05:a0:ef:2b:14:04:
         de:e5:c5:18:1a:45:e4:88:20:89:78:47:37:76:6d:de:f2:fd:
         b8:3e:f5:b0:56:bf:5b:e1:11:74:90:47:a5:3b:82:4f:4e:35:
         4f:96:6d:1c:74:af:96:0c:04:6f:6b:4f:31:34:e7:fd:42:9a:
         39:43:36:60:49:0c:2b:7f:3e:d3:b4:ad:40:44:f7:bc:0b:d8:
         65:51:07:cd:86:76:d2:72:13:24:59:2a:c6:60:ee:75:ec:a9:
         7d:45:2a:42:90:5d:7a:09:ba:60:26:95:3d:84:4e:99:99:26:
         90:92:44:44:1c:bf:73:2e:62:dc:fd:80:2e:ad:fa:c6:9e:62:
         84:f0:05:3c:f2:65:52:94:ad:4c:08:c7:b1:cb:5e:fb
-----BEGIN CERTIFICATE-----
MIIHnTCCA4WgAwIBAgIBBDANBgkqhkiG9w0BAQUFADBvMQswCQYDVQQGEwJOTzEN
MAsGA1UECAwET3NsbzENMAsGA1UEBwwET3NsbzEQMA4GA1UECgwHVHJ1c3RNZTEZ
MBcGA1UECwwQVHJ1c3QgRGVwYXJ0bWVudDEVMBMGA1UEAwwMU0lHTklORyBDQSAx
MB4XDTE0MDkxOTIzMTgwMloXDTE1MDkxOTIzMTgwMlowgY0xCzAJBgNVBAYTAk5P
MQ0wCwYDVQQIDARPc2xvMQ0wCwYDVQQHDARPc2xvMRAwDgYDVQQKDAdUcnVzdE1l
MRkwFwYDVQQLDBBUcnVzdCBEZXBhcnRtZW50MRIwEAYDVQQDDAlrYWhvb3QuaXQx
HzAdBgkqhkiG9w0BCQEWEGthaG9vdEBrYWhvb3QuaXQwggEiMA0GCSqGSIb3DQEB
AQUAA4IBDwAwggEKAoIBAQDXPHFZxWehY5SEvbX26Gi/7yMU0DgG6sLza7EP02sK
RiWhiSR1I5NloeRm4d+jJ4uysiRjaaIloT5BrBEedN0aDJvSQ6xTQnBa7OPF9Grx
3rcu7xP2PIYpuZyR0OmacjjNv1r1N5qiMdatMzBbIusQc4+/MJmMSzMKQ7YYgu39
2EQc4/EBG6Msw5OTYR7uqZq72g1ZKtVCksxl0maR2H7mNCIwV7nX3XCSw0WO8+TB
vkqod+5plssHJa02OMeoDdIQIw7t6mtDx3WLp5MmRQ3dpv/glWHBZytTM5AQrjfH
QN9ouG0VEH4fg7Z62PD6t/qtFMu8Off3X48HDLIBlTFDAgMBAAGjggEjMIIBHzAJ
BgNVHRMEAjAAMCwGCWCGSAGG+EIBDQQfFh1PcGVuU1NMIEdlbmVyYXRlZCBDZXJ0
aWZpY2F0ZTAdBgNVHQ4EFgQUps/YvmwjvXuksRT6NfkIxF+7Bg4wgZQGA1UdIwSB
jDCBiYAUf9OdEScO7A1wqTO3QdlWAoRUQaChbqRsMGoxCzAJBgNVBAYTAk5PMQ0w
CwYDVQQIDARPc2xvMQ0wCwYDVQQHDARPc2xvMRAwDgYDVQQKDAdUcnVzdE1lMRkw
FwYDVQQLDBBUcnVzdCBEZXBhcnRtZW50MRAwDgYDVQQDDAdST09UIENBggEBMAsG
A1UdDwQEAwIF4DAhBgNVHREEGjAYgglrYWhvb3QuaXSCCyoua2Fob290Lml0MA0G
CSqGSIb3DQEBBQUAA4IEAQBk7Kq5wzzY3kObr0nluo7PK3vorPf4z5oBG6KwUSyq
rkujO1rCDEshs60HJjZQem8EVV9jcDgbQyYbkESf/iT1XCxTyhjPV15FWhIgUMim
JrGSG86Na0OEsBv61+9BlgSfZ2Z46DiSPtCqZYlmaqSbgZPQ8h+2zI1ClV2iSwJD
yTKJJ21gkKsKxC6lyNoZRoQ9+nXZntuE/ie4ytpuucnE2nSBXAKn7QJ4ZzB2WMud
lnpjC08OsowhhVU/ebKfJATzV4owyA05mHDDCiFNIWvSM1KrVZi22sQnn+TFYcSf
Q/VVtQzaNcrRdBgwE+gYP6pnOxED2B+esTtiHNroIgmjqCDE45//MzbQ8O49uoqU
Imhv8CVKzC+tSjs0Ee1bohXkxGMfcn/v3kZVLdYTnXqUKdJl5+aOsrS28VVEAiFa
5T9ciO2H+h4g91kWgC+ICgiSy5iCoirCF8h0q5SHqrlN3pOiiXFNZYs9GbFg4ula
WsvhMLXksotxsSuxJxZN1GqPtXVAqcTYerAnrKaqOwbLkKUK6pMpf0BW4TP4EshA
NtfYV/6De3BBeGkbekAalzKUI7HdqEfpxjj8F1qC+ZCWP+zCxIXscD2v9ZB9XY2Y
8rtKMtuvc2BYZsTfNjcgv9x+rU0HPLtmE/KMeFteMPLcMWQfC2Bq+er3ugqsy+B2
WPCL+aw6CTj7w40v7IRlQmGe1EaECLPyNQ0mYFV3DGu0g/E2ifoVif3fwK6YWTuG
QZmlcS3HAiXMLkVxYrkYJSYHiAauGhcC9Qr4FXGNYv4ihLMhuvtHZlu9tApCHRqf
EVwJw2r9zjeGCYLXLoPRtAIVfgO/8Xj8kFg7CbNHFvBcjAnfcQFgC6GE8TAkre3x
JMxlB/tyuX3WQZnHFzNrvUpJRVVpuYCODBgFVcvQIJTiHoPNnzzjUz+41hONkkuR
D77jUxjj/enyE6s1cWp5c1yUoCejGAiyUjkDHt0nbp8ElZe6pCWsEB1MHBvlC9LR
BZAz3MU+iMydsyG8yG0djiik+dnCQ3drNcTztLvVB9B2NgHqpDcuCxRtCj3qCB3P
0yUwoDT14V+1eDzfwuZoncWRD59B13rNivbgvPoO+4Rl1e6FOI1TBc9CUWp8pgus
MHGBEnGcIQqWhDXLsbegvvR22zDT+cBh8y2rG7cFoO8rFATe5cUYGkXkiCCJeEc3
dm3e8v24PvWwVr9b4RF0kEelO4JPTjVPlm0cdK+WDARva08xNOf9Qpo5QzZgSQwr
fz7TtK1ARPe8C9hlUQfNhnbSchMkWSrGYO517Kl9RSpCkF16CbpgJpU9hE6ZmSaQ
kkREHL9zLmLc/YAurfrGnmKE8AU88mVSlK1MCMexy177
-----END CERTIFICATE-----
