Certificate:
    Data:
        Version: 3 (0x2)
        Serial Number: 2 (0x2)
    Signature Algorithm: sha1WithRSAEncryption
        Issuer: C=NO, ST=Oslo, L=Oslo, O=TrustMe, OU=Trust Department, CN=SIGNING CA 1
        Validity
            Not Before: Sep 19 23:06:21 2014 GMT
            Not After : Sep 19 23:06:21 2015 GMT
        Subject: C=NO, ST=Oslo, L=Oslo, O=TrustMe, OU=Trust Department, CN=kahoot.it/emailAddress=kahoot@kahoot.it
        Subject Public Key Info:
            Public Key Algorithm: rsaEncryption
                Public-Key: (2048 bit)
                Modulus:
                    00:b6:82:b9:fe:3f:9b:7e:68:13:bb:ed:15:e5:b8:
                    c4:69:5b:62:54:ea:e9:f6:7d:71:51:2b:a1:44:e6:
                    c2:a3:b3:d1:63:44:8b:b4:02:13:80:60:ec:4d:4d:
                    39:3f:5b:b4:c4:34:60:81:6d:37:35:bd:66:49:63:
                    ab:33:45:75:ed:01:52:c3:ca:5f:89:4c:79:9b:cb:
                    1a:16:07:f3:2d:be:6a:24:81:c4:c9:79:85:41:57:
                    bd:84:4e:03:23:8d:b8:28:f0:56:4e:6f:d9:d2:6f:
                    8a:b4:65:49:44:30:4b:8d:d6:a7:09:eb:6b:e8:d8:
                    16:a1:db:66:5e:4a:91:98:73:67:37:eb:f7:8c:01:
                    37:2a:43:d8:0f:f2:56:16:a6:0a:38:62:f9:5e:c3:
                    45:3a:86:01:5b:c6:2c:71:0e:6d:0d:83:f4:e3:ec:
                    2e:9e:1f:69:4f:6a:ba:c1:1b:d1:70:75:a6:e3:34:
                    5e:68:b5:67:80:e0:2d:70:3e:c9:eb:42:0d:53:98:
                    ec:1e:b5:6d:79:62:e2:4e:63:26:06:ea:00:38:1d:
                    65:07:a1:ba:7a:9d:78:92:a2:3c:52:b2:65:1f:69:
                    5d:07:c4:98:49:b4:c5:8a:19:a2:7e:02:91:76:e5:
                    e8:da:74:eb:26:a8:df:ca:0c:a4:26:13:79:2e:09:
                    52:93
                Exponent: 65537 (0x10001)
        X509v3 extensions:
            X509v3 Basic Constraints: 
                CA:FALSE
            Netscape Comment: 
                OpenSSL Generated Certificate
            X509v3 Subject Key Identifier: 
                B5:38:3A:B7:92:BD:1B:BF:6F:23:41:9E:F3:A7:C0:82:DD:47:3E:2A
            X509v3 Authority Key Identifier: 
                keyid:7F:D3:9D:11:27:0E:EC:0D:70:A9:33:B7:41:D9:56:02:84:54:41:A0
                DirName:/C=NO/ST=Oslo/L=Oslo/O=TrustMe/OU=Trust Department/CN=ROOT CA
                serial:01

            X509v3 Key Usage: 
                Digital Signature, Non Repudiation, Key Encipherment
            X509v3 Subject Alternative Name: 
                DNS:kahoot.it, DNS:*.kahoot.it
    Signature Algorithm: sha1WithRSAEncryption
         6c:2f:e6:48:63:c1:ae:56:70:ea:77:ca:f1:11:95:2b:e2:7b:
         ff:91:68:4f:a9:2d:4c:4a:2c:b4:da:9e:08:b0:36:7a:b3:50:
         70:25:4b:5f:31:ca:88:7f:5b:f5:e1:e7:64:0a:01:cf:20:e4:
         25:ee:8d:c7:11:b5:85:38:16:e2:bf:fb:30:10:8b:9b:a6:f5:
         78:eb:58:0b:5a:b7:41:76:c7:e7:20:a7:53:9d:09:0d:c7:7e:
         0f:d4:88:90:d6:07:95:eb:2b:b1:a7:3d:9f:b3:9e:ee:73:56:
         d7:1b:a6:99:5c:6f:e8:a8:10:72:03:2b:18:a2:c9:37:66:91:
         a2:4f:43:89:81:6d:6e:ac:d0:be:01:0e:f2:bc:23:c0:14:89:
         ea:94:92:01:13:20:eb:f6:fe:e5:4a:e6:08:f0:57:20:a6:94:
         84:19:6e:10:25:ba:67:9f:97:ee:d5:18:91:34:37:c0:24:85:
         f9:15:2d:08:15:77:85:c0:ab:b8:72:69:de:63:fb:ae:09:22:
         6b:49:40:9f:8b:d0:3d:71:df:b9:88:63:c2:a3:87:c6:b7:e6:
         db:e8:22:8d:72:5d:2a:03:14:ba:14:43:71:82:9f:a2:33:33:
         8b:bf:a6:1b:f0:ed:d0:1f:a9:91:0d:d4:d9:a2:85:92:c9:b2:
         4c:c7:22:85:e1:7d:fd:b5:8e:88:ce:56:52:c5:6c:e8:3c:8d:
         25:35:46:47:97:df:33:86:9e:cd:4b:49:ec:6d:55:52:a7:b8:
         9b:6a:01:74:ed:9b:66:40:ca:7c:3d:d1:55:d9:9f:12:aa:67:
         e1:4c:71:d3:bd:9a:ed:a6:30:14:48:49:9a:5b:4c:9e:18:53:
         76:75:64:73:80:dd:08:fc:e6:3d:73:c4:67:f3:ac:68:b5:96:
         0d:64:8f:55:43:9d:66:4f:f3:60:ed:8b:52:8c:08:47:26:16:
         86:a0:a4:dd:7a:c3:61:9f:f2:2a:4d:27:11:41:e7:17:52:93:
         e3:75:f3:1a:1c:b4:01:49:2a:25:92:d9:fd:be:ac:2b:0a:75:
         2c:23:f2:25:2e:3f:c4:b2:e8:3e:89:4a:07:e7:f0:d2:90:00:
         1a:cf:54:90:fd:26:ef:d4:5f:d6:bf:e1:d7:01:a3:dc:20:6a:
         81:d4:0d:57:51:62:60:fe:51:2e:04:e8:12:60:68:90:df:1a:
         49:b9:8b:74:8d:fc:2c:9f:6a:2a:14:af:8a:82:39:cf:a9:5a:
         b2:1f:6d:8b:af:28:65:0f:64:81:5e:62:da:1b:f5:90:b4:6f:
         c6:57:77:a3:6b:8e:78:7b:5c:4c:c7:6d:43:fe:c7:77:81:c0:
         b8:79:5a:00:60:1a:5a:3e:b7:e6:5f:8a:47:63:e0:5f:ea:c3:
         25:24:29:17:f8:2d:6f:f3:55:c8:a6:fc:2c:4a:1c:9c:db:d0:
         08:52:a5:96:0d:04:b8:ce:ac:d0:8e:d2:bc:90:f6:76:46:cb:
         fa:b0:ac:ed:bb:db:2e:20:52:86:5e:cb:e5:72:7b:7d:ee:3c:
         72:d1:00:65:e6:5d:8b:22:cb:81:cc:2b:b0:99:6f:76:70:fe:
         52:a4:23:7f:06:bd:2b:09:41:b0:e9:12:73:18:d6:18:17:10:
         f5:07:0a:3c:9b:d5:9a:4b:55:2b:d8:7f:5a:72:25:99:94:62:
         aa:18:50:c0:32:d0:60:f4:47:db:be:8a:bc:be:be:76:b9:67:
         93:b3:74:65:92:f1:3c:16:92:7d:6d:74:bf:0c:09:4c:60:8f:
         ec:67:a5:e2:cb:b5:8c:a3:48:b9:e8:e2:ba:49:e8:9b:d3:c3:
         0f:f9:83:84:38:89:bf:cd:c6:2a:2c:c4:17:6c:cb:f2:c2:56:
         cb:14:af:75:3f:aa:b1:5c:74:0a:23:bc:4b:9f:cb:a8:2a:d0:
         04:db:d3:c4:39:08:1e:38:c8:df:ba:7e:22:ce:17:20:6f:6b:
         ae:da:60:b5:51:d8:b2:11:31:5e:46:5b:6b:b0:5a:e6:b8:b1:
         9f:0f:b1:99:47:b7:fb:0c:d9:39:94:23:4a:e6:38:bd:59:58:
         b7:be:22:f0:f2:2e:90:df:4b:d9:4f:38:f5:e6:ce:e5:4f:28:
         38:06:c4:23:9d:df:dd:f3:64:9c:58:8a:3d:06:95:6b:d1:b7:
         9d:38:2f:69:72:94:c3:f2:f7:15:d1:fa:c7:3a:db:2c:6d:61:
         69:7c:81:99:e2:dd:74:18:c0:ef:ee:b7:92:16:31:12:b1:b7:
         d8:58:d7:57:43:d2:fe:29:56:9e:c7:16:4f:be:ff:90:4d:58:
         60:92:01:d3:22:a2:2f:15:ce:60:85:e2:8a:62:6b:73:36:91:
         ba:36:16:91:06:20:9f:e2:e0:72:86:9f:94:f4:ea:69:ab:11:
         24:e9:16:10:95:e2:f6:ea:38:d0:81:55:b4:62:7c:3f:e4:59:
         04:37:0f:3f:e3:51:c6:ff:d7:85:0a:01:ef:4d:70:c6:62:fd:
         60:17:42:29:e5:c0:39:66:60:66:0a:46:b8:5f:7f:1a:50:b9:
         89:e7:99:c8:1c:d1:07:d9:c4:da:fc:09:da:01:5e:17:4c:76:
         cb:b3:20:0b:1e:7d:ce:76:d8:9c:8b:f7:63:13:05:71:b1:6a:
         6a:31:28:af:10:ea:2e:0b:c1:e5:5a:de:91:02:28:b6:75:e3:
         b8:9f:8d:15:f8:36:c3:49:6d:a5:dd:67:c7:66:e2:e1
-----BEGIN CERTIFICATE-----
MIIHnTCCA4WgAwIBAgIBAjANBgkqhkiG9w0BAQUFADBvMQswCQYDVQQGEwJOTzEN
MAsGA1UECAwET3NsbzENMAsGA1UEBwwET3NsbzEQMA4GA1UECgwHVHJ1c3RNZTEZ
MBcGA1UECwwQVHJ1c3QgRGVwYXJ0bWVudDEVMBMGA1UEAwwMU0lHTklORyBDQSAx
MB4XDTE0MDkxOTIzMDYyMVoXDTE1MDkxOTIzMDYyMVowgY0xCzAJBgNVBAYTAk5P
MQ0wCwYDVQQIDARPc2xvMQ0wCwYDVQQHDARPc2xvMRAwDgYDVQQKDAdUcnVzdE1l
MRkwFwYDVQQLDBBUcnVzdCBEZXBhcnRtZW50MRIwEAYDVQQDDAlrYWhvb3QuaXQx
HzAdBgkqhkiG9w0BCQEWEGthaG9vdEBrYWhvb3QuaXQwggEiMA0GCSqGSIb3DQEB
AQUAA4IBDwAwggEKAoIBAQC2grn+P5t+aBO77RXluMRpW2JU6un2fXFRK6FE5sKj
s9FjRIu0AhOAYOxNTTk/W7TENGCBbTc1vWZJY6szRXXtAVLDyl+JTHmbyxoWB/Mt
vmokgcTJeYVBV72ETgMjjbgo8FZOb9nSb4q0ZUlEMEuN1qcJ62vo2Bah22ZeSpGY
c2c36/eMATcqQ9gP8lYWpgo4Yvlew0U6hgFbxixxDm0Ng/Tj7C6eH2lParrBG9Fw
dabjNF5otWeA4C1wPsnrQg1TmOwetW15YuJOYyYG6gA4HWUHobp6nXiSojxSsmUf
aV0HxJhJtMWKGaJ+ApF25ejadOsmqN/KDKQmE3kuCVKTAgMBAAGjggEjMIIBHzAJ
BgNVHRMEAjAAMCwGCWCGSAGG+EIBDQQfFh1PcGVuU1NMIEdlbmVyYXRlZCBDZXJ0
aWZpY2F0ZTAdBgNVHQ4EFgQUtTg6t5K9G79vI0Ge86fAgt1HPiowgZQGA1UdIwSB
jDCBiYAUf9OdEScO7A1wqTO3QdlWAoRUQaChbqRsMGoxCzAJBgNVBAYTAk5PMQ0w
CwYDVQQIDARPc2xvMQ0wCwYDVQQHDARPc2xvMRAwDgYDVQQKDAdUcnVzdE1lMRkw
FwYDVQQLDBBUcnVzdCBEZXBhcnRtZW50MRAwDgYDVQQDDAdST09UIENBggEBMAsG
A1UdDwQEAwIF4DAhBgNVHREEGjAYgglrYWhvb3QuaXSCCyoua2Fob290Lml0MA0G
CSqGSIb3DQEBBQUAA4IEAQBsL+ZIY8GuVnDqd8rxEZUr4nv/kWhPqS1MSiy02p4I
sDZ6s1BwJUtfMcqIf1v14edkCgHPIOQl7o3HEbWFOBbiv/swEIubpvV461gLWrdB
dsfnIKdTnQkNx34P1IiQ1geV6yuxpz2fs57uc1bXG6aZXG/oqBByAysYosk3ZpGi
T0OJgW1urNC+AQ7yvCPAFInqlJIBEyDr9v7lSuYI8FcgppSEGW4QJbpnn5fu1RiR
NDfAJIX5FS0IFXeFwKu4cmneY/uuCSJrSUCfi9A9cd+5iGPCo4fGt+bb6CKNcl0q
AxS6FENxgp+iMzOLv6Yb8O3QH6mRDdTZooWSybJMxyKF4X39tY6IzlZSxWzoPI0l
NUZHl98zhp7NS0nsbVVSp7ibagF07ZtmQMp8PdFV2Z8SqmfhTHHTvZrtpjAUSEma
W0yeGFN2dWRzgN0I/OY9c8Rn86xotZYNZI9VQ51mT/Ng7YtSjAhHJhaGoKTdesNh
n/IqTScRQecXUpPjdfMaHLQBSSolktn9vqwrCnUsI/IlLj/Esug+iUoH5/DSkAAa
z1SQ/Sbv1F/Wv+HXAaPcIGqB1A1XUWJg/lEuBOgSYGiQ3xpJuYt0jfwsn2oqFK+K
gjnPqVqyH22LryhlD2SBXmLaG/WQtG/GV3eja454e1xMx21D/sd3gcC4eVoAYBpa
PrfmX4pHY+Bf6sMlJCkX+C1v81XIpvwsShyc29AIUqWWDQS4zqzQjtK8kPZ2Rsv6
sKztu9suIFKGXsvlcnt97jxy0QBl5l2LIsuBzCuwmW92cP5SpCN/Br0rCUGw6RJz
GNYYFxD1Bwo8m9WaS1Ur2H9aciWZlGKqGFDAMtBg9Efbvoq8vr52uWeTs3RlkvE8
FpJ9bXS/DAlMYI/sZ6Xiy7WMo0i56OK6Seib08MP+YOEOIm/zcYqLMQXbMvywlbL
FK91P6qxXHQKI7xLn8uoKtAE29PEOQgeOMjfun4izhcgb2uu2mC1UdiyETFeRltr
sFrmuLGfD7GZR7f7DNk5lCNK5ji9WVi3viLw8i6Q30vZTzj15s7lTyg4BsQjnd/d
82ScWIo9BpVr0bedOC9pcpTD8vcV0frHOtssbWFpfIGZ4t10GMDv7reSFjESsbfY
WNdXQ9L+KVaexxZPvv+QTVhgkgHTIqIvFc5gheKKYmtzNpG6NhaRBiCf4uByhp+U
9OppqxEk6RYQleL26jjQgVW0Ynw/5FkENw8/41HG/9eFCgHvTXDGYv1gF0Ip5cA5
ZmBmCka4X38aULmJ55nIHNEH2cTa/AnaAV4XTHbLsyALHn3Odtici/djEwVxsWpq
MSivEOouC8HlWt6RAii2deO4n40V+DbDSW2l3WfHZuLh
-----END CERTIFICATE-----
