Certificate:
    Data:
        Version: 3 (0x2)
        Serial Number: 3 (0x3)
    Signature Algorithm: sha1WithRSAEncryption
        Issuer: C=NO, ST=Oslo, L=Oslo, O=TrustMe, OU=Trust Department, CN=SIGNING CA 1
        Validity
            Not Before: Sep 19 22:17:53 2014 GMT
            Not After : Sep 19 22:17:53 2015 GMT
        Subject: C=NO, ST=Oslo, L=Oslo, O=TrustMe, OU=Trust Department, CN=kahoot.it/emailAddress=kahoot@kahoot.it
        Subject Public Key Info:
            Public Key Algorithm: rsaEncryption
                Public-Key: (2048 bit)
                Modulus:
                    00:c8:93:bc:ec:6f:5e:16:c4:e5:f4:96:ea:d5:83:
                    ec:e9:41:9e:83:8c:a3:9e:05:51:00:59:e8:80:7a:
                    ba:30:7c:42:dc:01:f8:27:9a:e0:75:17:82:70:fc:
                    4e:ff:a1:ff:8f:fa:98:7a:79:9a:9e:59:a3:eb:60:
                    72:73:ee:6d:11:11:38:56:85:f7:29:02:0c:5d:05:
                    31:c0:5f:cb:95:a3:2a:e3:bd:6a:b1:b7:97:8b:b8:
                    b6:21:af:97:ed:63:79:4e:42:7b:53:0e:db:54:44:
                    4d:c6:ab:ad:49:04:27:d4:ca:8e:ee:d3:de:95:9b:
                    cc:c0:d8:cb:68:9f:83:2d:c3:24:e3:fb:b7:01:ab:
                    10:f2:2e:9f:a2:1e:5b:65:be:12:9a:43:91:6b:e9:
                    81:94:de:f5:b7:c1:9e:58:15:d5:ca:d5:09:c1:be:
                    95:eb:56:a9:ff:cb:8f:30:e2:1d:6f:eb:89:8f:65:
                    c9:91:17:a6:68:09:37:9a:e8:23:6f:1d:dc:82:c0:
                    0d:b9:9c:e5:05:27:8d:24:1e:a6:e0:77:e1:3b:62:
                    7d:b4:46:ca:fd:74:75:ec:a0:bd:7d:ed:c4:c0:5a:
                    df:78:37:b1:4a:51:09:7d:7c:67:fe:87:43:53:27:
                    8f:23:28:7e:1d:5c:68:24:46:5f:00:2a:8d:5e:44:
                    ee:e7
                Exponent: 65537 (0x10001)
        X509v3 extensions:
            X509v3 Basic Constraints: 
                CA:FALSE
            Netscape Comment: 
                OpenSSL Generated Certificate
            X509v3 Subject Key Identifier: 
                65:49:14:97:4C:7D:9A:5F:29:1E:57:A5:14:F7:5B:61:F3:30:56:8E
            X509v3 Authority Key Identifier: 
                keyid:7F:D3:9D:11:27:0E:EC:0D:70:A9:33:B7:41:D9:56:02:84:54:41:A0
                DirName:/C=NO/ST=Oslo/L=Oslo/O=TrustMe/OU=Trust Department/CN=ROOT CA
                serial:01

    Signature Algorithm: sha1WithRSAEncryption
         06:63:ea:1f:3e:0d:72:fd:ee:2e:a4:d0:b1:0b:7e:88:8f:9e:
         77:40:e8:ad:5a:a1:33:f6:17:69:d3:4a:1c:93:8d:37:9f:68:
         7f:1e:db:33:39:f9:f2:b1:81:f0:61:2e:66:b0:66:09:63:7c:
         ec:1a:fe:c4:18:8b:3c:98:5b:ae:35:c5:3e:c3:08:ea:13:86:
         e8:6b:1a:d2:3f:2f:9c:44:c9:1a:04:d3:00:6a:6b:d2:15:9d:
         ee:23:65:15:47:4a:95:0a:53:7f:c6:01:e2:6b:2b:ab:8a:55:
         54:38:8d:32:cf:ca:20:87:4f:66:c9:36:ac:2e:f5:66:7b:4d:
         3c:0c:bd:14:dd:fc:d7:12:11:65:fd:0d:4a:24:e0:9e:73:7f:
         75:61:1d:8e:e7:39:3e:5a:62:0b:65:55:5a:13:33:d9:ef:54:
         c2:38:d0:67:1d:e4:0c:14:14:a5:65:3e:a1:ed:79:53:fc:0f:
         c6:d6:68:8c:90:4e:c1:93:c9:bd:e0:5a:23:ee:67:77:79:97:
         0c:22:f4:61:31:b7:53:c7:93:48:f1:60:d6:ae:13:d5:48:23:
         34:54:97:d6:d0:9d:02:eb:8e:6e:55:ba:27:88:a1:24:e1:d9:
         04:d3:30:29:ec:32:27:a8:5c:18:db:c9:4c:51:42:e4:9c:8a:
         0c:08:5b:ac:f3:30:01:0e:3a:c5:c3:dd:6d:fc:5c:b4:11:ec:
         e6:4a:1f:27:0e:38:7e:bf:51:18:d9:bb:2b:d3:26:00:13:c8:
         f8:f4:33:21:ec:20:fc:99:33:74:80:7f:0e:d8:f8:29:79:73:
         0c:21:3e:32:83:78:68:05:6f:e0:e9:31:c1:65:66:30:34:d5:
         cd:0f:64:ae:83:bd:aa:77:03:24:d1:30:fe:94:17:09:43:0a:
         f5:e7:1e:42:d8:15:1c:15:c7:67:55:9a:aa:12:52:df:3e:9f:
         ee:fc:e4:bd:e9:2b:35:c8:62:5d:a8:aa:63:9d:9b:fc:c8:e2:
         ed:1a:57:12:a5:4c:dc:21:7a:c7:c9:a0:df:f1:43:64:fd:b5:
         8e:f1:55:34:52:b0:4e:85:05:fc:6e:98:f6:7a:b5:4d:1f:8f:
         95:41:75:38:c1:b8:8c:9f:ef:08:b0:3d:1e:4f:b2:ca:5b:56:
         f3:4c:25:72:8f:fd:1b:0b:ac:cf:64:ea:8f:d0:53:91:2a:a1:
         46:36:a3:32:59:11:c0:f2:71:89:8a:bd:2c:ee:77:89:01:a1:
         32:ea:ac:2c:37:5b:68:dd:98:aa:8d:65:00:87:46:0b:1a:32:
         ed:e5:67:b7:84:f4:78:6b:7a:5e:f6:f0:5b:05:23:66:1b:7a:
         33:4a:36:19:7c:d3:03:65:60:89:aa:b0:bf:0b:47:93:6c:74:
         02:d1:7c:33:75:8e:5a:df:09:90:16:88:84:79:4a:c0:6f:62:
         06:18:c3:5b:8c:29:17:04:2b:af:71:2d:ea:18:06:7b:1f:fe:
         ef:c2:cc:c8:8d:df:35:e6:a1:53:38:87:12:fc:00:94:df:62:
         3a:fc:75:e2:8c:96:d2:54:8c:06:25:44:d4:d0:01:da:4a:64:
         c7:89:e1:d0:24:7b:a3:05:d7:ca:86:bc:2c:a2:7c:8e:be:e9:
         d2:f9:33:57:cb:bf:ce:a1:e8:b5:75:60:0e:89:45:7a:d6:0d:
         78:93:63:27:ad:e6:a1:72:68:5d:9c:be:7b:09:6b:83:aa:c4:
         47:ff:3c:08:cc:26:5f:48:e1:e1:04:10:0d:9e:0e:99:06:54:
         6d:0c:e6:de:1c:a1:cc:b0:9b:a7:1d:c4:20:be:e4:0b:72:e9:
         48:48:64:dd:20:47:34:a9:9b:89:fd:9c:95:ee:bf:cc:fa:28:
         93:3a:c4:cc:a5:43:eb:df:05:a0:a9:10:c9:41:d2:8e:06:1c:
         ee:8c:34:4b:f8:ff:76:d5:5a:be:1f:f6:9e:13:00:6d:9e:cd:
         59:99:a9:43:bf:fb:0e:6b:73:9b:f3:da:05:2d:d5:ae:ac:36:
         e6:20:f8:27:2e:1d:f8:01:f9:0c:00:ce:0c:cb:45:1b:2c:a1:
         85:a1:18:a5:5d:7b:15:89:f9:bd:5f:bb:08:20:e2:54:36:38:
         5a:2a:a7:f7:5c:34:a1:b9:2a:8e:a8:73:17:61:24:07:41:f3:
         0f:36:8f:c6:ef:4d:cb:f5:85:0e:6b:56:3e:f7:0b:7e:bd:e9:
         ed:e0:80:98:ad:32:85:30:42:4c:f0:ea:45:d8:c6:cc:ed:9d:
         82:f4:1a:2b:4b:b9:66:eb:95:ab:c5:b8:65:55:1c:74:54:90:
         cc:a2:eb:bc:86:4a:ae:3d:e9:5b:4c:9f:1a:eb:1d:6d:2b:d7:
         50:fb:8b:19:74:5c:f5:a1:98:e2:17:ca:f2:78:14:fc:41:ea:
         f1:ef:e9:66:fb:a4:7c:81:55:d5:43:b6:17:ec:b5:99:47:3c:
         14:00:1f:ae:34:fd:9b:ae:1d:b3:27:78:e1:a7:08:78:2b:e1:
         de:b0:90:41:f9:29:2c:05:c9:74:1a:bb:ee:01:14:d2:66:03:
         4d:c1:d8:66:50:96:b3:62:2f:41:9b:78:29:21:f8:e3:e7:ce:
         28:c2:0d:46:b5:3e:02:0f:38:8d:0b:67:8b:69:5c:9b:14:5c:
         fc:ef:ca:e1:b1:bf:7c:c3:56:6d:12:3a:53:5d:bf:ce:28:02:
         92:13:68:00:2a:b4:13:3e:6f:c5:8f:bd:82:2d:c6:21
-----BEGIN CERTIFICATE-----
MIIHazCCA1OgAwIBAgIBAzANBgkqhkiG9w0BAQUFADBvMQswCQYDVQQGEwJOTzEN
MAsGA1UECAwET3NsbzENMAsGA1UEBwwET3NsbzEQMA4GA1UECgwHVHJ1c3RNZTEZ
MBcGA1UECwwQVHJ1c3QgRGVwYXJ0bWVudDEVMBMGA1UEAwwMU0lHTklORyBDQSAx
MB4XDTE0MDkxOTIyMTc1M1oXDTE1MDkxOTIyMTc1M1owgY0xCzAJBgNVBAYTAk5P
MQ0wCwYDVQQIDARPc2xvMQ0wCwYDVQQHDARPc2xvMRAwDgYDVQQKDAdUcnVzdE1l
MRkwFwYDVQQLDBBUcnVzdCBEZXBhcnRtZW50MRIwEAYDVQQDDAlrYWhvb3QuaXQx
HzAdBgkqhkiG9w0BCQEWEGthaG9vdEBrYWhvb3QuaXQwggEiMA0GCSqGSIb3DQEB
AQUAA4IBDwAwggEKAoIBAQDIk7zsb14WxOX0lurVg+zpQZ6DjKOeBVEAWeiAerow
fELcAfgnmuB1F4Jw/E7/of+P+ph6eZqeWaPrYHJz7m0REThWhfcpAgxdBTHAX8uV
oyrjvWqxt5eLuLYhr5ftY3lOQntTDttURE3Gq61JBCfUyo7u096Vm8zA2Mton4Mt
wyTj+7cBqxDyLp+iHltlvhKaQ5Fr6YGU3vW3wZ5YFdXK1QnBvpXrVqn/y48w4h1v
64mPZcmRF6ZoCTea6CNvHdyCwA25nOUFJ40kHqbgd+E7Yn20Rsr9dHXsoL197cTA
Wt94N7FKUQl9fGf+h0NTJ48jKH4dXGgkRl8AKo1eRO7nAgMBAAGjgfIwge8wCQYD
VR0TBAIwADAsBglghkgBhvhCAQ0EHxYdT3BlblNTTCBHZW5lcmF0ZWQgQ2VydGlm
aWNhdGUwHQYDVR0OBBYEFGVJFJdMfZpfKR5XpRT3W2HzMFaOMIGUBgNVHSMEgYww
gYmAFH/TnREnDuwNcKkzt0HZVgKEVEGgoW6kbDBqMQswCQYDVQQGEwJOTzENMAsG
A1UECAwET3NsbzENMAsGA1UEBwwET3NsbzEQMA4GA1UECgwHVHJ1c3RNZTEZMBcG
A1UECwwQVHJ1c3QgRGVwYXJ0bWVudDEQMA4GA1UEAwwHUk9PVCBDQYIBATANBgkq
hkiG9w0BAQUFAAOCBAEABmPqHz4Ncv3uLqTQsQt+iI+ed0DorVqhM/YXadNKHJON
N59ofx7bMzn58rGB8GEuZrBmCWN87Br+xBiLPJhbrjXFPsMI6hOG6Gsa0j8vnETJ
GgTTAGpr0hWd7iNlFUdKlQpTf8YB4msrq4pVVDiNMs/KIIdPZsk2rC71ZntNPAy9
FN381xIRZf0NSiTgnnN/dWEdjuc5PlpiC2VVWhMz2e9UwjjQZx3kDBQUpWU+oe15
U/wPxtZojJBOwZPJveBaI+5nd3mXDCL0YTG3U8eTSPFg1q4T1UgjNFSX1tCdAuuO
blW6J4ihJOHZBNMwKewyJ6hcGNvJTFFC5JyKDAhbrPMwAQ46xcPdbfxctBHs5kof
Jw44fr9RGNm7K9MmABPI+PQzIewg/JkzdIB/Dtj4KXlzDCE+MoN4aAVv4OkxwWVm
MDTVzQ9kroO9qncDJNEw/pQXCUMK9eceQtgVHBXHZ1WaqhJS3z6f7vzkvekrNchi
XaiqY52b/Mji7RpXEqVM3CF6x8mg3/FDZP21jvFVNFKwToUF/G6Y9nq1TR+PlUF1
OMG4jJ/vCLA9Hk+yyltW80wlco/9Gwusz2Tqj9BTkSqhRjajMlkRwPJxiYq9LO53
iQGhMuqsLDdbaN2Yqo1lAIdGCxoy7eVnt4T0eGt6XvbwWwUjZht6M0o2GXzTA2Vg
iaqwvwtHk2x0AtF8M3WOWt8JkBaIhHlKwG9iBhjDW4wpFwQrr3Et6hgGex/+78LM
yI3fNeahUziHEvwAlN9iOvx14oyW0lSMBiVE1NAB2kpkx4nh0CR7owXXyoa8LKJ8
jr7p0vkzV8u/zqHotXVgDolFetYNeJNjJ63moXJoXZy+ewlrg6rER/88CMwmX0jh
4QQQDZ4OmQZUbQzm3hyhzLCbpx3EIL7kC3LpSEhk3SBHNKmbif2cle6/zPookzrE
zKVD698FoKkQyUHSjgYc7ow0S/j/dtVavh/2nhMAbZ7NWZmpQ7/7Dmtzm/PaBS3V
rqw25iD4Jy4d+AH5DADODMtFGyyhhaEYpV17FYn5vV+7CCDiVDY4Wiqn91w0obkq
jqhzF2EkB0HzDzaPxu9Ny/WFDmtWPvcLfr3p7eCAmK0yhTBCTPDqRdjGzO2dgvQa
K0u5ZuuVq8W4ZVUcdFSQzKLrvIZKrj3pW0yfGusdbSvXUPuLGXRc9aGY4hfK8ngU
/EHq8e/pZvukfIFV1UO2F+y1mUc8FAAfrjT9m64dsyd44acIeCvh3rCQQfkpLAXJ
dBq77gEU0mYDTcHYZlCWs2IvQZt4KSH44+fOKMINRrU+Ag84jQtni2lcmxRc/O/K
4bG/fMNWbRI6U12/zigCkhNoACq0Ez5vxY+9gi3GIQ==
-----END CERTIFICATE-----
