Certificate:
    Data:
        Version: 3 (0x2)
        Serial Number: 1 (0x1)
    Signature Algorithm: sha1WithRSAEncryption
        Issuer: C=NO, ST=Oslo, L=Oslo, O=TrustMe, OU=Trust Department, CN=SIGNING CA 1
        Validity
            Not Before: Sep 19 21:46:26 2014 GMT
            Not After : Sep 19 21:46:26 2015 GMT
        Subject: C=NO, ST=Oslo, L=Oslo, O=TrustMe, OU=Trust Department, CN=*.kahoot.it/emailAddress=trustme@example.com
        Subject Public Key Info:
            Public Key Algorithm: rsaEncryption
                Public-Key: (2048 bit)
                Modulus:
                    00:ce:80:6a:e3:7a:30:82:f3:73:b8:00:5e:52:ae:
                    82:99:d4:c8:2e:c0:ee:06:38:47:ee:c0:ca:a9:06:
                    34:54:c5:d6:1d:8b:57:78:6d:1d:d1:3f:11:ad:25:
                    35:e5:bb:e0:62:c8:b5:b0:34:3b:b5:eb:d8:f9:da:
                    65:08:f8:be:de:d9:b7:12:67:68:47:ba:75:4d:e5:
                    b1:b1:9b:78:b7:2c:65:14:8d:05:e6:29:7a:70:af:
                    1a:eb:3b:35:aa:42:35:b4:a4:9b:6d:a9:ee:09:7d:
                    7d:64:af:f2:17:2b:6f:6d:e6:05:98:a3:15:35:22:
                    3e:30:68:92:75:84:07:d8:8c:28:b4:26:7a:bb:f3:
                    19:ad:e5:ba:6c:67:c0:3d:84:03:75:f6:b8:f9:59:
                    11:e2:ce:ad:7a:09:52:56:af:8e:ca:28:f8:ec:80:
                    b9:8f:68:9d:33:39:6a:00:fe:d0:68:ff:58:bf:5a:
                    c6:9b:3b:2b:f9:ae:d7:b6:92:fc:88:57:e8:dc:99:
                    69:5c:31:ea:ce:ca:68:55:64:cf:87:8e:5c:21:80:
                    d4:c9:12:36:69:24:9a:ce:ff:23:de:b5:40:84:90:
                    f2:71:c6:f5:72:5e:07:de:22:78:db:50:ff:17:70:
                    3a:e2:72:18:2d:51:d8:ae:cf:d4:c6:ea:eb:05:29:
                    b5:bf
                Exponent: 65537 (0x10001)
        X509v3 extensions:
            X509v3 Basic Constraints: 
                CA:FALSE
            Netscape Comment: 
                OpenSSL Generated Certificate
            X509v3 Subject Key Identifier: 
                C4:E4:B9:2A:F0:C3:AB:AD:FD:36:8F:13:2A:4F:29:8D:DA:5B:B2:2D
            X509v3 Authority Key Identifier: 
                keyid:7F:D3:9D:11:27:0E:EC:0D:70:A9:33:B7:41:D9:56:02:84:54:41:A0
                DirName:/C=NO/ST=Oslo/L=Oslo/O=TrustMe/OU=Trust Department/CN=ROOT CA
                serial:01

    Signature Algorithm: sha1WithRSAEncryption
         9c:d0:60:3d:d8:bb:ed:68:67:a7:1c:3d:ec:26:1b:50:c1:cb:
         85:67:31:fd:09:94:98:3a:57:ac:17:2c:0a:87:06:b7:78:1f:
         b1:81:1e:f9:ca:e8:33:67:08:f7:94:a9:cb:65:0f:fa:5b:1e:
         d7:5f:65:bf:81:d4:ff:e0:03:15:b3:ab:c1:48:33:59:26:24:
         85:1e:f0:bb:a5:2b:da:4b:55:0b:5c:a5:d1:a7:e7:65:c9:59:
         c8:bd:ae:21:fe:90:27:77:91:d0:fb:34:04:e9:e1:41:d1:30:
         81:77:bc:94:36:cc:ed:29:3c:9b:d4:f8:07:59:a7:f8:e9:8d:
         35:c1:17:7b:e7:2a:57:a0:fd:a0:44:de:5b:06:c1:64:f6:b4:
         a1:09:73:52:e9:cc:34:99:a2:11:ee:d6:1e:03:9d:54:a0:14:
         af:85:84:fc:c7:cb:70:23:4b:38:48:53:ad:07:67:b6:f0:e7:
         98:66:ac:e0:ff:8b:19:43:fd:64:06:9a:00:23:62:41:28:2d:
         3e:91:17:ac:15:34:66:30:1b:bf:35:71:04:5b:51:30:eb:c8:
         61:4c:37:33:f1:43:19:4d:e8:39:4f:30:0a:d5:9c:7a:1f:8b:
         cb:68:35:2b:04:26:5f:5e:83:74:07:57:39:95:02:f9:04:99:
         50:3d:ff:14:00:d2:10:0c:47:3a:fd:f0:41:57:5f:f5:86:e6:
         05:82:bc:c4:0f:26:66:e3:ca:72:35:ca:94:4d:15:d0:d4:0b:
         75:0c:e0:d5:ae:cc:f9:9c:34:c0:78:70:7f:e1:ec:b3:a2:6c:
         3e:60:d2:95:40:f6:3d:c9:dd:d0:36:7d:64:e8:da:d5:70:59:
         3e:a6:40:42:e3:61:11:0d:9e:5b:aa:4c:cb:83:79:56:29:f3:
         5c:e7:ec:64:49:bf:20:fa:e3:2f:1f:2e:7c:1f:27:fa:25:d9:
         bb:d1:67:3b:87:94:40:7a:36:0e:b6:04:5f:41:01:c9:b7:b4:
         3c:32:9d:36:1c:21:93:13:ec:9c:4c:ff:41:c6:82:b1:78:60:
         a6:89:84:14:b3:3a:6c:4e:f8:7a:50:27:07:b3:3a:6a:87:bf:
         2a:98:6d:de:04:57:d2:c6:01:62:b6:1d:c2:06:02:47:38:19:
         dd:27:b2:be:76:95:b9:9b:6a:8c:c8:32:24:d3:5e:41:67:0b:
         0b:52:eb:7e:6a:28:c3:57:9f:0a:14:15:99:8a:30:d1:86:d1:
         2e:8b:b8:c9:91:3d:bc:64:2a:59:f8:a6:85:6c:3e:9c:f0:97:
         07:c8:dc:70:3f:11:79:b5:00:73:04:06:a1:dc:21:fb:ff:e9:
         03:0f:fa:2f:1f:5f:ec:ea:c7:f5:ad:d8:67:01:df:b7:b8:98:
         8d:45:a4:1c:df:5d:5a:37:ae:90:27:1a:bf:af:af:7c:97:81:
         1f:37:87:2f:3c:f6:29:a9:0f:48:6f:d8:bb:59:d0:61:1d:a8:
         d9:8c:d5:7f:c1:c4:d5:a7:ef:55:13:fc:62:e1:82:a1:8c:25:
         27:8c:a8:04:d0:13:93:e1:37:21:c4:86:7d:a6:28:bd:6a:d5:
         af:23:61:71:68:b5:4e:15:9b:ab:53:d5:d8:75:c0:0d:41:e9:
         71:f1:d0:7b:5f:f0:23:d8:75:5a:55:04:23:46:72:a3:f1:df:
         33:63:18:57:e9:be:ed:be:94:1a:a5:c2:5f:83:33:10:74:c5:
         6e:01:c3:a4:59:77:3c:e8:46:ad:13:d8:2c:37:10:48:7a:3b:
         27:0b:97:b1:88:a1:5e:d6:cc:f2:38:df:82:39:f1:98:2b:0f:
         a6:a5:9e:6b:f7:ac:67:4b:b4:18:96:0a:7d:32:e7:58:39:91:
         c8:a8:80:4d:82:5a:67:c5:0d:c4:d4:3b:11:d4:27:ee:df:b9:
         aa:f3:eb:69:1b:90:cd:5c:0c:52:e2:96:d0:13:4c:54:d2:2d:
         0c:16:b4:5d:d0:a1:05:2c:bd:1c:98:05:6b:af:3d:b0:43:a6:
         b9:8c:d2:1c:79:97:eb:1d:7f:0f:b2:3c:2c:f9:d5:11:b1:65:
         39:81:eb:05:c3:45:68:40:3e:63:6d:83:e2:00:86:a7:1d:2f:
         71:81:a3:21:52:7f:ad:43:16:a7:08:19:97:db:84:15:48:e6:
         83:9a:1a:5f:ac:ad:57:cd:3c:e2:a3:6c:8f:9b:cb:07:06:67:
         d5:06:5f:0a:cf:8e:e4:39:65:25:15:a6:5c:b1:d2:35:19:1f:
         c8:4f:d7:b0:c9:bb:7c:00:64:a4:5c:bf:79:49:34:3c:ae:5b:
         15:18:7c:f0:29:48:07:94:90:27:45:e9:02:dc:cb:b9:90:46:
         ca:f8:89:2d:55:67:55:4c:08:5d:2e:b0:1e:b5:45:a3:72:17:
         d9:e0:aa:24:bf:c4:84:02:fe:a2:82:07:f3:25:71:42:55:08:
         47:e0:7a:f5:b2:73:61:55:77:da:e3:75:35:d9:da:aa:1b:3a:
         c4:dd:84:f8:de:ea:ec:15:0b:0e:96:13:7b:7d:da:6d:2c:f2:
         b7:df:54:f8:e4:ef:4b:ff:7d:c6:0f:33:77:b4:9b:bd:d6:8b:
         b7:81:8a:b9:a7:9c:84:5a:7c:4b:d5:e3:9a:d3:89:85:70:8f:
         60:0f:86:1f:fc:71:b6:35:37:ba:78:03:55:74:3b:da:ad:66:
         d0:df:88:dc:d5:23:da:50:f9:09:d6:33:2f:b7:15:44
-----BEGIN CERTIFICATE-----
MIIHcDCCA1igAwIBAgIBATANBgkqhkiG9w0BAQUFADBvMQswCQYDVQQGEwJOTzEN
MAsGA1UECAwET3NsbzENMAsGA1UEBwwET3NsbzEQMA4GA1UECgwHVHJ1c3RNZTEZ
MBcGA1UECwwQVHJ1c3QgRGVwYXJ0bWVudDEVMBMGA1UEAwwMU0lHTklORyBDQSAx
MB4XDTE0MDkxOTIxNDYyNloXDTE1MDkxOTIxNDYyNlowgZIxCzAJBgNVBAYTAk5P
MQ0wCwYDVQQIDARPc2xvMQ0wCwYDVQQHDARPc2xvMRAwDgYDVQQKDAdUcnVzdE1l
MRkwFwYDVQQLDBBUcnVzdCBEZXBhcnRtZW50MRQwEgYDVQQDDAsqLmthaG9vdC5p
dDEiMCAGCSqGSIb3DQEJARYTdHJ1c3RtZUBleGFtcGxlLmNvbTCCASIwDQYJKoZI
hvcNAQEBBQADggEPADCCAQoCggEBAM6AauN6MILzc7gAXlKugpnUyC7A7gY4R+7A
yqkGNFTF1h2LV3htHdE/Ea0lNeW74GLItbA0O7Xr2PnaZQj4vt7ZtxJnaEe6dU3l
sbGbeLcsZRSNBeYpenCvGus7NapCNbSkm22p7gl9fWSv8hcrb23mBZijFTUiPjBo
knWEB9iMKLQmervzGa3lumxnwD2EA3X2uPlZEeLOrXoJUlavjsoo+OyAuY9onTM5
agD+0Gj/WL9axps7K/mu17aS/IhX6NyZaVwx6s7KaFVkz4eOXCGA1MkSNmkkms7/
I961QISQ8nHG9XJeB94ieNtQ/xdwOuJyGC1R2K7P1Mbq6wUptb8CAwEAAaOB8jCB
7zAJBgNVHRMEAjAAMCwGCWCGSAGG+EIBDQQfFh1PcGVuU1NMIEdlbmVyYXRlZCBD
ZXJ0aWZpY2F0ZTAdBgNVHQ4EFgQUxOS5KvDDq639No8TKk8pjdpbsi0wgZQGA1Ud
IwSBjDCBiYAUf9OdEScO7A1wqTO3QdlWAoRUQaChbqRsMGoxCzAJBgNVBAYTAk5P
MQ0wCwYDVQQIDARPc2xvMQ0wCwYDVQQHDARPc2xvMRAwDgYDVQQKDAdUcnVzdE1l
MRkwFwYDVQQLDBBUcnVzdCBEZXBhcnRtZW50MRAwDgYDVQQDDAdST09UIENBggEB
MA0GCSqGSIb3DQEBBQUAA4IEAQCc0GA92LvtaGenHD3sJhtQwcuFZzH9CZSYOles
FywKhwa3eB+xgR75yugzZwj3lKnLZQ/6Wx7XX2W/gdT/4AMVs6vBSDNZJiSFHvC7
pSvaS1ULXKXRp+dlyVnIva4h/pAnd5HQ+zQE6eFB0TCBd7yUNsztKTyb1PgHWaf4
6Y01wRd75ypXoP2gRN5bBsFk9rShCXNS6cw0maIR7tYeA51UoBSvhYT8x8twI0s4
SFOtB2e28OeYZqzg/4sZQ/1kBpoAI2JBKC0+kResFTRmMBu/NXEEW1Ew68hhTDcz
8UMZTeg5TzAK1Zx6H4vLaDUrBCZfXoN0B1c5lQL5BJlQPf8UANIQDEc6/fBBV1/1
huYFgrzEDyZm48pyNcqUTRXQ1At1DODVrsz5nDTAeHB/4eyzomw+YNKVQPY9yd3Q
Nn1k6NrVcFk+pkBC42ERDZ5bqkzLg3lWKfNc5+xkSb8g+uMvHy58Hyf6Jdm70Wc7
h5RAejYOtgRfQQHJt7Q8Mp02HCGTE+ycTP9BxoKxeGCmiYQUszpsTvh6UCcHszpq
h78qmG3eBFfSxgFith3CBgJHOBndJ7K+dpW5m2qMyDIk015BZwsLUut+aijDV58K
FBWZijDRhtEui7jJkT28ZCpZ+KaFbD6c8JcHyNxwPxF5tQBzBAah3CH7/+kDD/ov
H1/s6sf1rdhnAd+3uJiNRaQc311aN66QJxq/r698l4EfN4cvPPYpqQ9Ib9i7WdBh
HajZjNV/wcTVp+9VE/xi4YKhjCUnjKgE0BOT4TchxIZ9pii9atWvI2FxaLVOFZur
U9XYdcANQelx8dB7X/Aj2HVaVQQjRnKj8d8zYxhX6b7tvpQapcJfgzMQdMVuAcOk
WXc86EatE9gsNxBIejsnC5exiKFe1szyON+COfGYKw+mpZ5r96xnS7QYlgp9MudY
OZHIqIBNglpnxQ3E1DsR1Cfu37mq8+tpG5DNXAxS4pbQE0xU0i0MFrRd0KEFLL0c
mAVrrz2wQ6a5jNIceZfrHX8Psjws+dURsWU5gesFw0VoQD5jbYPiAIanHS9xgaMh
Un+tQxanCBmX24QVSOaDmhpfrK1XzTzio2yPm8sHBmfVBl8Kz47kOWUlFaZcsdI1
GR/IT9ewybt8AGSkXL95STQ8rlsVGHzwKUgHlJAnRekC3Mu5kEbK+IktVWdVTAhd
LrAetUWjchfZ4Kokv8SEAv6iggfzJXFCVQhH4Hr1snNhVXfa43U12dqqGzrE3YT4
3ursFQsOlhN7fdptLPK331T45O9L/33GDzN3tJu91ou3gYq5p5yEWnxL1eOa04mF
cI9gD4Yf/HG2NTe6eANVdDvarWbQ34jc1SPaUPkJ1jMvtxVE
-----END CERTIFICATE-----
